; Function Attrs: nounwind uwtable
define internal ptr @builtin_breakpoint(ptr readnone captures(none) %0, ptr noundef %1, i64 noundef %2, ptr noundef %3) #0 {
  %5 = tail call ptr @PySys_GetObject(ptr noundef nonnull @.str.108) #9
  %6 = icmp eq ptr %5, null
  br i1 %6, label %7, label %9

7:                                                ; preds = %4
  %8 = load ptr, ptr @PyExc_RuntimeError, align 8, !tbaa !39
  tail call void @PyErr_SetString(ptr noundef %8, ptr noundef nonnull @.str.109) #9
  br label %Py_DECREF.exit

9:                                                ; preds = %4
  %10 = tail call i32 (ptr, ptr, ...) @PySys_Audit(ptr noundef nonnull @.str.110, ptr noundef nonnull @.str.111, ptr noundef nonnull %5) #9
  %11 = icmp slt i32 %10, 0
  br i1 %11, label %Py_DECREF.exit, label %12

12:                                               ; preds = %9
  %13 = load i32, ptr %5, align 8, !tbaa !33
  %14 = icmp slt i32 %13, 0
  br i1 %14, label %Py_INCREF.exit, label %15

15:                                               ; preds = %12
  %16 = add nuw i32 %13, 1
  store i32 %16, ptr %5, align 8, !tbaa !33
  br label %Py_INCREF.exit

Py_INCREF.exit:                                   ; preds = %12, %15
  %17 = tail call ptr @PyObject_Vectorcall(ptr noundef nonnull %5, ptr noundef %1, i64 noundef %2, ptr noundef %3) #9
  %18 = load i32, ptr %5, align 8, !tbaa !33
  %.not.i = icmp sgt i32 %18, -1
  br i1 %.not.i, label %19, label %Py_DECREF.exit

19:                                               ; preds = %Py_INCREF.exit
  %20 = add nsw i32 %18, -1
  store i32 %20, ptr %5, align 8, !tbaa !33
  %21 = icmp eq i32 %20, 0
  br i1 %21, label %22, label %Py_DECREF.exit

22:                                               ; preds = %19
  tail call void @_Py_Dealloc(ptr noundef nonnull %5) #9
  br label %Py_DECREF.exit

Py_DECREF.exit:                                   ; preds = %22, %19, %Py_INCREF.exit, %9, %7
  %.0 = phi ptr [ null, %7 ], [ null, %9 ], [ %17, %Py_INCREF.exit ], [ %17, %19 ], [ %17, %22 ]
  ret ptr %.0
}